target datalayout = "e-m:e-p270:32:32-p271:32:32-p272:64:64-i64:64-i128:128-f80:128-n8:16:32:64-S128"
target triple = "x86_64-pc-linux-gnu"

%struct.slurm_conf_t = type { i64, ptr, i16, ptr, ptr, ptr, ptr, ptr, i16, ptr, ptr, ptr, ptr, ptr, ptr, ptr, i16, ptr, ptr, ptr, ptr, i16, ptr, ptr, ptr, i64, ptr, ptr, ptr, ptr, i16, ptr, ptr, i16, i32, ptr, i32, ptr, i32, i32, ptr, ptr, i64, i64, ptr, i16, i16, ptr, i32, i32, ptr, i32, ptr, i32, i16, i16, i16, ptr, i16, i16, ptr, ptr, i32, i16, i16, ptr, i32, i16, ptr, ptr, ptr, ptr, i16, ptr, ptr, ptr, ptr, i32, ptr, ptr, ptr, ptr, i16, i16, ptr, i32, i32, i32, i16, i16, ptr, ptr, i16, ptr, ptr, i32, i32, i32, i32, i32, i64, i32, i32, i16, ptr, ptr, i32, ptr, ptr, ptr, i16, i32, ptr, ptr, i16, ptr, ptr, i32, i16, ptr, ptr, ptr, ptr, i32, i32, i16, i16, i32, ptr, i16, ptr, i32, i32, i32, i32, i32, i32, ptr, i16, ptr, ptr, i32, i16, ptr, i32, i16, i16, ptr, ptr, ptr, i16, ptr, ptr, ptr, ptr, i16, i16, ptr, i16, ptr, i16, ptr, i16, ptr, i16, ptr, ptr, ptr, ptr, i16, ptr, ptr, ptr, i32, ptr, i32, ptr, ptr, i16, ptr, ptr, i32, i16, ptr, ptr, i16, i16, ptr, i16, ptr, ptr, ptr, i32, ptr, i16, i16, ptr, ptr, ptr, ptr, ptr, ptr, ptr, ptr, i16, i32, i16, ptr, ptr, ptr, ptr, i32, ptr, ptr, ptr, i16, ptr, ptr, ptr, i16, ptr, i16, ptr, i16, i16, ptr }

@slurm_conf = external global %struct.slurm_conf_t, align 8

; Function Attrs: nounwind uwtable
define internal zeroext i1 @_is_user_min_admin_level(ptr noundef %0, i32 noundef %1, i32 noundef %2, i1 noundef zeroext %3) #0 {
  %5 = alloca ptr, align 8
  %6 = alloca i32, align 4
  %7 = alloca i32, align 4
  %8 = alloca i8, align 1
  %9 = alloca i8, align 1
  %10 = alloca i32, align 4
  store ptr %0, ptr %5, align 8
  store i32 %1, ptr %6, align 4
  store i32 %2, ptr %7, align 4
  %11 = zext i1 %3 to i8
  store i8 %11, ptr %8, align 1
  call void @llvm.lifetime.start.p0(i64 1, ptr %9) #8
  store i8 1, ptr %9, align 1
  %12 = load i32, ptr %6, align 4
  %13 = load i32, ptr getelementptr inbounds nuw (%struct.slurm_conf_t, ptr @slurm_conf, i32 0, i32 173), align 8
  %14 = icmp ne i32 %12, %13
  br i1 %14, label %15, label %35

15:                                               ; preds = %4
  %16 = load i32, ptr %6, align 4
  %17 = icmp ne i32 %16, 0
  br i1 %17, label %18, label %35

18:                                               ; preds = %15
  call void @llvm.lifetime.start.p0(i64 4, ptr %10) #8
  %19 = load i8, ptr %8, align 1, !range !8, !noundef !9
  %20 = trunc i8 %19 to i1
  br i1 %20, label %21, label %25

21:                                               ; preds = %18
  %22 = load ptr, ptr %5, align 8
  %23 = load i32, ptr %6, align 4
  %24 = call i32 @assoc_mgr_get_admin_level_locked(ptr noundef %22, i32 noundef %23)
  store i32 %24, ptr %10, align 4
  br label %29

25:                                               ; preds = %18
  %26 = load ptr, ptr %5, align 8
  %27 = load i32, ptr %6, align 4
  %28 = call i32 @assoc_mgr_get_admin_level(ptr noundef %26, i32 noundef %27)
  store i32 %28, ptr %10, align 4
  br label %29

29:                                               ; preds = %25, %21
  %30 = load i32, ptr %10, align 4
  %31 = load i32, ptr %7, align 4
  %32 = icmp ult i32 %30, %31
  br i1 %32, label %33, label %34

33:                                               ; preds = %29
  store i8 0, ptr %9, align 1
  br label %34

34:                                               ; preds = %33, %29
  call void @llvm.lifetime.end.p0(i64 4, ptr %10) #8
  br label %35

35:                                               ; preds = %34, %15, %4
  %36 = load i8, ptr %9, align 1, !range !8, !noundef !9
  %37 = trunc i8 %36 to i1
  call void @llvm.lifetime.end.p0(i64 1, ptr %9) #8
  ret i1 %37
}

; Function Attrs: nounwind uwtable
define dso_local zeroext i1 @is_user_min_admin_level(ptr noundef %0, i32 noundef %1, i32 noundef %2) #0 {
  %4 = alloca ptr, align 8
  %5 = alloca i32, align 4
  %6 = alloca i32, align 4
  store ptr %0, ptr %4, align 8
  store i32 %1, ptr %5, align 4
  store i32 %2, ptr %6, align 4
  %7 = load ptr, ptr %4, align 8
  %8 = load i32, ptr %5, align 4
  %9 = load i32, ptr %6, align 4
  %10 = call zeroext i1 @_is_user_min_admin_level(ptr noundef %7, i32 noundef %8, i32 noundef %9, i1 noundef zeroext false)
  ret i1 %10
}